target datalayout = "e-m:e-p270:32:32-p271:32:32-p272:64:64-i64:64-i128:128-f80:128-n8:16:32:64-S128"
target triple = "x86_64-pc-linux-gnu"

%struct.key2any_ctx_st = type { ptr, i32, i32, ptr, %struct.ossl_passphrase_data_st }
%struct.ossl_passphrase_data_st = type { i32, %union.anon, i8, ptr, i64 }
%union.anon = type { %struct.anon }
%struct.anon = type { ptr, i64 }

@.str.1 = private unnamed_addr constant [7 x i8] c"cipher\00", align 1
@.str.2 = private unnamed_addr constant [11 x i8] c"properties\00", align 1
@.str.3 = private unnamed_addr constant [16 x i8] c"save-parameters\00", align 1

; Function Attrs: nounwind uwtable
define internal i32 @key2any_set_ctx_params(ptr noundef %0, ptr noundef %1) #0 {
  %3 = alloca i32, align 4
  %4 = alloca ptr, align 8
  %5 = alloca ptr, align 8
  %6 = alloca ptr, align 8
  %7 = alloca ptr, align 8
  %8 = alloca ptr, align 8
  %9 = alloca ptr, align 8
  %10 = alloca ptr, align 8
  %11 = alloca ptr, align 8
  %12 = alloca ptr, align 8
  %13 = alloca i32, align 4
  store ptr %0, ptr %4, align 8, !tbaa !3
  store ptr %1, ptr %5, align 8, !tbaa !19
  call void @llvm.lifetime.start.p0(i64 8, ptr %6) #4
  %14 = load ptr, ptr %4, align 8, !tbaa !3
  store ptr %14, ptr %6, align 8, !tbaa !7
  call void @llvm.lifetime.start.p0(i64 8, ptr %7) #4
  %15 = load ptr, ptr %6, align 8, !tbaa !7
  %16 = getelementptr inbounds nuw %struct.key2any_ctx_st, ptr %15, i32 0, i32 0
  %17 = load ptr, ptr %16, align 8, !tbaa !9
  %18 = call ptr @ossl_prov_ctx_get0_libctx(ptr noundef %17)
  store ptr %18, ptr %7, align 8, !tbaa !21
  call void @llvm.lifetime.start.p0(i64 8, ptr %8) #4
  %19 = load ptr, ptr %5, align 8, !tbaa !19
  %20 = call ptr @OSSL_PARAM_locate_const(ptr noundef %19, ptr noundef @.str.1)
  store ptr %20, ptr %8, align 8, !tbaa !19
  call void @llvm.lifetime.start.p0(i64 8, ptr %9) #4
  %21 = load ptr, ptr %5, align 8, !tbaa !19
  %22 = call ptr @OSSL_PARAM_locate_const(ptr noundef %21, ptr noundef @.str.2)
  store ptr %22, ptr %9, align 8, !tbaa !19
  call void @llvm.lifetime.start.p0(i64 8, ptr %10) #4
  %23 = load ptr, ptr %5, align 8, !tbaa !19
  %24 = call ptr @OSSL_PARAM_locate_const(ptr noundef %23, ptr noundef @.str.3)
  store ptr %24, ptr %10, align 8, !tbaa !19
  %25 = load ptr, ptr %8, align 8, !tbaa !19
  %26 = icmp ne ptr %25, null
  br i1 %26, label %27, label %66

27:                                               ; preds = %2
  call void @llvm.lifetime.start.p0(i64 8, ptr %11) #4
  store ptr null, ptr %11, align 8, !tbaa !23
  call void @llvm.lifetime.start.p0(i64 8, ptr %12) #4
  store ptr null, ptr %12, align 8, !tbaa !23
  %28 = load ptr, ptr %8, align 8, !tbaa !19
  %29 = call i32 @OSSL_PARAM_get_utf8_string_ptr(ptr noundef %28, ptr noundef %11)
  %30 = icmp ne i32 %29, 0
  br i1 %30, label %32, label %31

31:                                               ; preds = %27
  store i32 0, ptr %3, align 4
  store i32 1, ptr %13, align 4
  br label %63

32:                                               ; preds = %27
  %33 = load ptr, ptr %9, align 8, !tbaa !19
  %34 = icmp ne ptr %33, null
  br i1 %34, label %35, label %40

35:                                               ; preds = %32
  %36 = load ptr, ptr %9, align 8, !tbaa !19
  %37 = call i32 @OSSL_PARAM_get_utf8_string_ptr(ptr noundef %36, ptr noundef %12)
  %38 = icmp ne i32 %37, 0
  br i1 %38, label %40, label %39

39:                                               ; preds = %35
  store i32 0, ptr %3, align 4
  store i32 1, ptr %13, align 4
  br label %63

40:                                               ; preds = %35, %32
  %41 = load ptr, ptr %6, align 8, !tbaa !7
  %42 = getelementptr inbounds nuw %struct.key2any_ctx_st, ptr %41, i32 0, i32 3
  %43 = load ptr, ptr %42, align 8, !tbaa !18
  call void @EVP_CIPHER_free(ptr noundef %43)
  %44 = load ptr, ptr %6, align 8, !tbaa !7
  %45 = getelementptr inbounds nuw %struct.key2any_ctx_st, ptr %44, i32 0, i32 3
  store ptr null, ptr %45, align 8, !tbaa !18
  %46 = load ptr, ptr %11, align 8, !tbaa !23
  %47 = icmp ne ptr %46, null
  %48 = zext i1 %47 to i32
  %49 = load ptr, ptr %6, align 8, !tbaa !7
  %50 = getelementptr inbounds nuw %struct.key2any_ctx_st, ptr %49, i32 0, i32 2
  store i32 %48, ptr %50, align 4, !tbaa !24
  %51 = load ptr, ptr %11, align 8, !tbaa !23
  %52 = icmp ne ptr %51, null
  br i1 %52, label %53, label %62

53:                                               ; preds = %40
  %54 = load ptr, ptr %7, align 8, !tbaa !21
  %55 = load ptr, ptr %11, align 8, !tbaa !23
  %56 = load ptr, ptr %12, align 8, !tbaa !23
  %57 = call ptr @EVP_CIPHER_fetch(ptr noundef %54, ptr noundef %55, ptr noundef %56)
  %58 = load ptr, ptr %6, align 8, !tbaa !7
  %59 = getelementptr inbounds nuw %struct.key2any_ctx_st, ptr %58, i32 0, i32 3
  store ptr %57, ptr %59, align 8, !tbaa !18
  %60 = icmp eq ptr %57, null
  br i1 %60, label %61, label %62

61:                                               ; preds = %53
  store i32 0, ptr %3, align 4
  store i32 1, ptr %13, align 4
  br label %63

62:                                               ; preds = %53, %40
  store i32 0, ptr %13, align 4
  br label %63

63:                                               ; preds = %62, %61, %39, %31
  call void @llvm.lifetime.end.p0(i64 8, ptr %12) #4
  call void @llvm.lifetime.end.p0(i64 8, ptr %11) #4
  %64 = load i32, ptr %13, align 4
  switch i32 %64, label %78 [
    i32 0, label %65
  ]

65:                                               ; preds = %63
  br label %66

66:                                               ; preds = %65, %2
  %67 = load ptr, ptr %10, align 8, !tbaa !19
  %68 = icmp ne ptr %67, null
  br i1 %68, label %69, label %77

69:                                               ; preds = %66
  %70 = load ptr, ptr %10, align 8, !tbaa !19
  %71 = load ptr, ptr %6, align 8, !tbaa !7
  %72 = getelementptr inbounds nuw %struct.key2any_ctx_st, ptr %71, i32 0, i32 1
  %73 = call i32 @OSSL_PARAM_get_int(ptr noundef %70, ptr noundef %72)
  %74 = icmp ne i32 %73, 0
  br i1 %74, label %76, label %75

75:                                               ; preds = %69
  store i32 0, ptr %3, align 4
  store i32 1, ptr %13, align 4
  br label %78

76:                                               ; preds = %69
  br label %77

77:                                               ; preds = %76, %66
  store i32 1, ptr %3, align 4
  store i32 1, ptr %13, align 4
  br label %78

78:                                               ; preds = %77, %75, %63
  call void @llvm.lifetime.end.p0(i64 8, ptr %10) #4
  call void @llvm.lifetime.end.p0(i64 8, ptr %9) #4
  call void @llvm.lifetime.end.p0(i64 8, ptr %8) #4
  call void @llvm.lifetime.end.p0(i64 8, ptr %7) #4
  call void @llvm.lifetime.end.p0(i64 8, ptr %6) #4
  %79 = load i32, ptr %3, align 4
  ret i32 %79
}