; Function Attrs: nounwind uwtable
define internal range(i32 0, 2) i32 @key2any_set_ctx_params(ptr noundef %0, ptr noundef %1) #0 {
  %3 = alloca ptr, align 8
  %4 = alloca ptr, align 8
  %5 = load ptr, ptr %0, align 8, !tbaa !3
  %6 = tail call ptr @ossl_prov_ctx_get0_libctx(ptr noundef %5) #5
  %7 = tail call ptr @OSSL_PARAM_locate_const(ptr noundef %1, ptr noundef nonnull @.str.1) #5
  %8 = tail call ptr @OSSL_PARAM_locate_const(ptr noundef %1, ptr noundef nonnull @.str.2) #5
  %9 = tail call ptr @OSSL_PARAM_locate_const(ptr noundef %1, ptr noundef nonnull @.str.3) #5
  %.not = icmp eq ptr %7, null
  br i1 %.not, label %27, label %10

10:                                               ; preds = %2
  call void @llvm.lifetime.start.p0(i64 8, ptr nonnull %3) #5
  store ptr null, ptr %3, align 8, !tbaa !16
  call void @llvm.lifetime.start.p0(i64 8, ptr nonnull %4) #5
  store ptr null, ptr %4, align 8, !tbaa !16
  %11 = call i32 @OSSL_PARAM_get_utf8_string_ptr(ptr noundef nonnull %7, ptr noundef nonnull %3) #5
  %.not23 = icmp eq i32 %11, 0
  br i1 %.not23, label %26, label %12

12:                                               ; preds = %10
  %.not24 = icmp eq ptr %8, null
  br i1 %.not24, label %15, label %13

13:                                               ; preds = %12
  %14 = call i32 @OSSL_PARAM_get_utf8_string_ptr(ptr noundef nonnull %8, ptr noundef nonnull %4) #5
  %.not25 = icmp eq i32 %14, 0
  br i1 %.not25, label %26, label %15

15:                                               ; preds = %13, %12
  %16 = getelementptr inbounds nuw i8, ptr %0, i64 16
  %17 = load ptr, ptr %16, align 8, !tbaa !15
  call void @EVP_CIPHER_free(ptr noundef %17) #5
  store ptr null, ptr %16, align 8, !tbaa !15
  %18 = load ptr, ptr %3, align 8, !tbaa !16
  %19 = icmp ne ptr %18, null
  %20 = zext i1 %19 to i32
  %21 = getelementptr inbounds nuw i8, ptr %0, i64 12
  store i32 %20, ptr %21, align 4, !tbaa !17
  %.not26 = icmp eq ptr %18, null
  br i1 %.not26, label %.critedge, label %22

22:                                               ; preds = %15
  %23 = load ptr, ptr %4, align 8, !tbaa !16
  %24 = call ptr @EVP_CIPHER_fetch(ptr noundef %6, ptr noundef nonnull %18, ptr noundef %23) #5
  store ptr %24, ptr %16, align 8, !tbaa !15
  %25 = icmp eq ptr %24, null
  br i1 %25, label %26, label %.critedge

.critedge:                                        ; preds = %22, %15
  call void @llvm.lifetime.end.p0(i64 8, ptr nonnull %4) #5
  call void @llvm.lifetime.end.p0(i64 8, ptr nonnull %3) #5
  br label %27

26:                                               ; preds = %22, %13, %10
  call void @llvm.lifetime.end.p0(i64 8, ptr nonnull %4) #5
  call void @llvm.lifetime.end.p0(i64 8, ptr nonnull %3) #5
  br label %32

27:                                               ; preds = %.critedge, %2
  %.not27 = icmp eq ptr %9, null
  br i1 %.not27, label %31, label %28

28:                                               ; preds = %27
  %29 = getelementptr inbounds nuw i8, ptr %0, i64 8
  %30 = call i32 @OSSL_PARAM_get_int(ptr noundef nonnull %9, ptr noundef nonnull %29) #5
  %.not28 = icmp eq i32 %30, 0
  br i1 %.not28, label %32, label %31

31:                                               ; preds = %28, %27
  br label %32

32:                                               ; preds = %28, %26, %31
  %.1 = phi i32 [ 1, %31 ], [ 0, %26 ], [ 0, %28 ]
  ret i32 %.1
}